target datalayout = "e-m:e-p270:32:32-p271:32:32-p272:64:64-i64:64-i128:128-f80:128-n8:16:32:64-S128"
target triple = "x86_64-pc-linux-gnu"

%struct.IndexInfo = type { i32, i32, i32, [32 x i16], ptr, ptr, ptr, ptr, ptr, ptr, ptr, ptr, ptr, ptr, i8, i8, i8, i8, i8, i8, i8, i8, i8, i32, i32, ptr, ptr }
%struct.AttrMap = type { ptr, i32 }

@.str.1 = private unnamed_addr constant [8 x i8] c"index.c\00", align 1
@.str.31 = private unnamed_addr constant [24 x i8] c"incorrect attribute map\00", align 1
@__func__.CompareIndexInfo = private unnamed_addr constant [17 x i8] c"CompareIndexInfo\00", align 1

; Function Attrs: nounwind uwtable
define dso_local zeroext i1 @CompareIndexInfo(ptr noundef %0, ptr noundef %1, ptr noundef %2, ptr noundef %3, ptr noundef %4, ptr noundef %5, ptr noundef %6) #0 {
  %8 = alloca i1, align 1
  %9 = alloca ptr, align 8
  %10 = alloca ptr, align 8
  %11 = alloca ptr, align 8
  %12 = alloca ptr, align 8
  %13 = alloca ptr, align 8
  %14 = alloca ptr, align 8
  %15 = alloca ptr, align 8
  %16 = alloca i32, align 4
  %17 = alloca i32, align 4
  %18 = alloca i8, align 1
  %19 = alloca ptr, align 8
  %20 = alloca i8, align 1
  %21 = alloca ptr, align 8
  store ptr %0, ptr %9, align 8
  store ptr %1, ptr %10, align 8
  store ptr %2, ptr %11, align 8
  store ptr %3, ptr %12, align 8
  store ptr %4, ptr %13, align 8
  store ptr %5, ptr %14, align 8
  store ptr %6, ptr %15, align 8
  call void @llvm.lifetime.start.p0(i64 4, ptr %16) #8
  %22 = load ptr, ptr %9, align 8
  %23 = getelementptr inbounds nuw %struct.IndexInfo, ptr %22, i32 0, i32 14
  %24 = load i8, ptr %23, align 8, !range !4, !noundef !5
  %25 = trunc i8 %24 to i1
  %26 = zext i1 %25 to i32
  %27 = load ptr, ptr %10, align 8
  %28 = getelementptr inbounds nuw %struct.IndexInfo, ptr %27, i32 0, i32 14
  %29 = load i8, ptr %28, align 8, !range !4, !noundef !5
  %30 = trunc i8 %29 to i1
  %31 = zext i1 %30 to i32
  %32 = icmp ne i32 %26, %31
  br i1 %32, label %33, label %34

33:                                               ; preds = %7
  store i1 false, ptr %8, align 1
  store i32 1, ptr %17, align 4
  br label %292

34:                                               ; preds = %7
  %35 = load ptr, ptr %9, align 8
  %36 = getelementptr inbounds nuw %struct.IndexInfo, ptr %35, i32 0, i32 15
  %37 = load i8, ptr %36, align 1, !range !4, !noundef !5
  %38 = trunc i8 %37 to i1
  %39 = zext i1 %38 to i32
  %40 = load ptr, ptr %10, align 8
  %41 = getelementptr inbounds nuw %struct.IndexInfo, ptr %40, i32 0, i32 15
  %42 = load i8, ptr %41, align 1, !range !4, !noundef !5
  %43 = trunc i8 %42 to i1
  %44 = zext i1 %43 to i32
  %45 = icmp ne i32 %39, %44
  br i1 %45, label %46, label %47

46:                                               ; preds = %34
  store i1 false, ptr %8, align 1
  store i32 1, ptr %17, align 4
  br label %292

47:                                               ; preds = %34
  %48 = load ptr, ptr %9, align 8
  %49 = getelementptr inbounds nuw %struct.IndexInfo, ptr %48, i32 0, i32 24
  %50 = load i32, ptr %49, align 8
  %51 = load ptr, ptr %10, align 8
  %52 = getelementptr inbounds nuw %struct.IndexInfo, ptr %51, i32 0, i32 24
  %53 = load i32, ptr %52, align 8
  %54 = icmp ne i32 %50, %53
  br i1 %54, label %55, label %56

55:                                               ; preds = %47
  store i1 false, ptr %8, align 1
  store i32 1, ptr %17, align 4
  br label %292

56:                                               ; preds = %47
  %57 = load ptr, ptr %9, align 8
  %58 = getelementptr inbounds nuw %struct.IndexInfo, ptr %57, i32 0, i32 1
  %59 = load i32, ptr %58, align 4
  %60 = load ptr, ptr %10, align 8
  %61 = getelementptr inbounds nuw %struct.IndexInfo, ptr %60, i32 0, i32 1
  %62 = load i32, ptr %61, align 4
  %63 = icmp ne i32 %59, %62
  br i1 %63, label %64, label %65

64:                                               ; preds = %56
  store i1 false, ptr %8, align 1
  store i32 1, ptr %17, align 4
  br label %292

65:                                               ; preds = %56
  %66 = load ptr, ptr %9, align 8
  %67 = getelementptr inbounds nuw %struct.IndexInfo, ptr %66, i32 0, i32 2
  %68 = load i32, ptr %67, align 8
  %69 = load ptr, ptr %10, align 8
  %70 = getelementptr inbounds nuw %struct.IndexInfo, ptr %69, i32 0, i32 2
  %71 = load i32, ptr %70, align 8
  %72 = icmp ne i32 %68, %71
  br i1 %72, label %73, label %74

73:                                               ; preds = %65
  store i1 false, ptr %8, align 1
  store i32 1, ptr %17, align 4
  br label %292

74:                                               ; preds = %65
  store i32 0, ptr %16, align 4
  br label %75

75:                                               ; preds = %201, %74
  %76 = load i32, ptr %16, align 4
  %77 = load ptr, ptr %9, align 8
  %78 = getelementptr inbounds nuw %struct.IndexInfo, ptr %77, i32 0, i32 1
  %79 = load i32, ptr %78, align 4
  %80 = icmp slt i32 %76, %79
  br i1 %80, label %81, label %204

81:                                               ; preds = %75
  %82 = load ptr, ptr %15, align 8
  %83 = getelementptr inbounds nuw %struct.AttrMap, ptr %82, i32 0, i32 1
  %84 = load i32, ptr %83, align 8
  %85 = load ptr, ptr %10, align 8
  %86 = getelementptr inbounds nuw %struct.IndexInfo, ptr %85, i32 0, i32 3
  %87 = load i32, ptr %16, align 4
  %88 = sext i32 %87 to i64
  %89 = getelementptr inbounds [32 x i16], ptr %86, i64 0, i64 %88
  %90 = load i16, ptr %89, align 2
  %91 = sext i16 %90 to i32
  %92 = icmp slt i32 %84, %91
  br i1 %92, label %93, label %104

93:                                               ; preds = %81
  br label %94

94:                                               ; preds = %93
  br i1 true, label %95, label %97

95:                                               ; preds = %94
  %96 = call zeroext i1 @errstart_cold(i32 noundef 21, ptr noundef null) #9
  br i1 %96, label %99, label %101

97:                                               ; preds = %94
  %98 = call zeroext i1 @errstart(i32 noundef 21, ptr noundef null)
  br i1 %98, label %99, label %101

99:                                               ; preds = %97, %95
  %100 = call i32 (ptr, ...) @errmsg_internal(ptr noundef @.str.31)
  call void @errfinish(ptr noundef @.str.1, i32 noundef 2570, ptr noundef @__func__.CompareIndexInfo)
  br label %101

101:                                              ; preds = %99, %97, %95
  unreachable

102:                                              ; No predecessors!
  br label %103

103:                                              ; preds = %102
  br label %104

104:                                              ; preds = %103, %81
  %105 = load ptr, ptr %9, align 8
  %106 = getelementptr inbounds nuw %struct.IndexInfo, ptr %105, i32 0, i32 3
  %107 = load i32, ptr %16, align 4
  %108 = sext i32 %107 to i64
  %109 = getelementptr inbounds [32 x i16], ptr %106, i64 0, i64 %108
  %110 = load i16, ptr %109, align 2
  %111 = sext i16 %110 to i32
  %112 = icmp eq i32 %111, 0
  br i1 %112, label %113, label %122

113:                                              ; preds = %104
  %114 = load ptr, ptr %10, align 8
  %115 = getelementptr inbounds nuw %struct.IndexInfo, ptr %114, i32 0, i32 3
  %116 = load i32, ptr %16, align 4
  %117 = sext i32 %116 to i64
  %118 = getelementptr inbounds [32 x i16], ptr %115, i64 0, i64 %117
  %119 = load i16, ptr %118, align 2
  %120 = sext i16 %119 to i32
  %121 = icmp eq i32 %120, 0
  br i1 %121, label %167, label %122

122:                                              ; preds = %113, %104
  %123 = load ptr, ptr %9, align 8
  %124 = getelementptr inbounds nuw %struct.IndexInfo, ptr %123, i32 0, i32 3
  %125 = load i32, ptr %16, align 4
  %126 = sext i32 %125 to i64
  %127 = getelementptr inbounds [32 x i16], ptr %124, i64 0, i64 %126
  %128 = load i16, ptr %127, align 2
  %129 = sext i16 %128 to i32
  %130 = icmp eq i32 %129, 0
  br i1 %130, label %140, label %131

131:                                              ; preds = %122
  %132 = load ptr, ptr %10, align 8
  %133 = getelementptr inbounds nuw %struct.IndexInfo, ptr %132, i32 0, i32 3
  %134 = load i32, ptr %16, align 4
  %135 = sext i32 %134 to i64
  %136 = getelementptr inbounds [32 x i16], ptr %133, i64 0, i64 %135
  %137 = load i16, ptr %136, align 2
  %138 = sext i16 %137 to i32
  %139 = icmp eq i32 %138, 0
  br i1 %139, label %140, label %141

140:                                              ; preds = %131, %122
  store i1 false, ptr %8, align 1
  store i32 1, ptr %17, align 4
  br label %292

141:                                              ; preds = %131
  %142 = load ptr, ptr %15, align 8
  %143 = getelementptr inbounds nuw %struct.AttrMap, ptr %142, i32 0, i32 0
  %144 = load ptr, ptr %143, align 8
  %145 = load ptr, ptr %10, align 8
  %146 = getelementptr inbounds nuw %struct.IndexInfo, ptr %145, i32 0, i32 3
  %147 = load i32, ptr %16, align 4
  %148 = sext i32 %147 to i64
  %149 = getelementptr inbounds [32 x i16], ptr %146, i64 0, i64 %148
  %150 = load i16, ptr %149, align 2
  %151 = sext i16 %150 to i32
  %152 = sub i32 %151, 1
  %153 = sext i32 %152 to i64
  %154 = getelementptr inbounds i16, ptr %144, i64 %153
  %155 = load i16, ptr %154, align 2
  %156 = sext i16 %155 to i32
  %157 = load ptr, ptr %9, align 8
  %158 = getelementptr inbounds nuw %struct.IndexInfo, ptr %157, i32 0, i32 3
  %159 = load i32, ptr %16, align 4
  %160 = sext i32 %159 to i64
  %161 = getelementptr inbounds [32 x i16], ptr %158, i64 0, i64 %160
  %162 = load i16, ptr %161, align 2
  %163 = sext i16 %162 to i32
  %164 = icmp ne i32 %156, %163
  br i1 %164, label %165, label %166

165:                                              ; preds = %141
  store i1 false, ptr %8, align 1
  store i32 1, ptr %17, align 4
  br label %292

166:                                              ; preds = %141
  br label %167

167:                                              ; preds = %166, %113
  %168 = load i32, ptr %16, align 4
  %169 = load ptr, ptr %9, align 8
  %170 = getelementptr inbounds nuw %struct.IndexInfo, ptr %169, i32 0, i32 2
  %171 = load i32, ptr %170, align 8
  %172 = icmp sge i32 %168, %171
  br i1 %172, label %173, label %174

173:                                              ; preds = %167
  br label %201

174:                                              ; preds = %167
  %175 = load ptr, ptr %11, align 8
  %176 = load i32, ptr %16, align 4
  %177 = sext i32 %176 to i64
  %178 = getelementptr inbounds i32, ptr %175, i64 %177
  %179 = load i32, ptr %178, align 4
  %180 = load ptr, ptr %12, align 8
  %181 = load i32, ptr %16, align 4
  %182 = sext i32 %181 to i64
  %183 = getelementptr inbounds i32, ptr %180, i64 %182
  %184 = load i32, ptr %183, align 4
  %185 = icmp ne i32 %179, %184
  br i1 %185, label %186, label %187

186:                                              ; preds = %174
  store i1 false, ptr %8, align 1
  store i32 1, ptr %17, align 4
  br label %292

187:                                              ; preds = %174
  %188 = load ptr, ptr %13, align 8
  %189 = load i32, ptr %16, align 4
  %190 = sext i32 %189 to i64
  %191 = getelementptr inbounds i32, ptr %188, i64 %190
  %192 = load i32, ptr %191, align 4
  %193 = load ptr, ptr %14, align 8
  %194 = load i32, ptr %16, align 4
  %195 = sext i32 %194 to i64
  %196 = getelementptr inbounds i32, ptr %193, i64 %195
  %197 = load i32, ptr %196, align 4
  %198 = icmp ne i32 %192, %197
  br i1 %198, label %199, label %200

199:                                              ; preds = %187
  store i1 false, ptr %8, align 1
  store i32 1, ptr %17, align 4
  br label %292

200:                                              ; preds = %187
  br label %201

201:                                              ; preds = %200, %173
  %202 = load i32, ptr %16, align 4
  %203 = add i32 %202, 1
  store i32 %203, ptr %16, align 4
  br label %75, !llvm.loop !26

204:                                              ; preds = %75
  %205 = load ptr, ptr %9, align 8
  %206 = getelementptr inbounds nuw %struct.IndexInfo, ptr %205, i32 0, i32 4
  %207 = load ptr, ptr %206, align 8
  %208 = icmp ne ptr %207, null
  %209 = zext i1 %208 to i32
  %210 = load ptr, ptr %10, align 8
  %211 = getelementptr inbounds nuw %struct.IndexInfo, ptr %210, i32 0, i32 4
  %212 = load ptr, ptr %211, align 8
  %213 = icmp ne ptr %212, null
  %214 = zext i1 %213 to i32
  %215 = icmp ne i32 %209, %214
  br i1 %215, label %216, label %217

216:                                              ; preds = %204
  store i1 false, ptr %8, align 1
  store i32 1, ptr %17, align 4
  br label %292

217:                                              ; preds = %204
  %218 = load ptr, ptr %9, align 8
  %219 = getelementptr inbounds nuw %struct.IndexInfo, ptr %218, i32 0, i32 4
  %220 = load ptr, ptr %219, align 8
  %221 = icmp ne ptr %220, null
  br i1 %221, label %222, label %242

222:                                              ; preds = %217
  call void @llvm.lifetime.start.p0(i64 1, ptr %18) #8
  call void @llvm.lifetime.start.p0(i64 8, ptr %19) #8
  %223 = load ptr, ptr %10, align 8
  %224 = getelementptr inbounds nuw %struct.IndexInfo, ptr %223, i32 0, i32 4
  %225 = load ptr, ptr %224, align 8
  %226 = load ptr, ptr %15, align 8
  %227 = call ptr @map_variable_attnos(ptr noundef %225, i32 noundef 1, i32 noundef 0, ptr noundef %226, i32 noundef 0, ptr noundef %18)
  store ptr %227, ptr %19, align 8
  %228 = load i8, ptr %18, align 1, !range !4, !noundef !5
  %229 = trunc i8 %228 to i1
  br i1 %229, label %230, label %231

230:                                              ; preds = %222
  store i1 false, ptr %8, align 1
  store i32 1, ptr %17, align 4
  br label %239

231:                                              ; preds = %222
  %232 = load ptr, ptr %9, align 8
  %233 = getelementptr inbounds nuw %struct.IndexInfo, ptr %232, i32 0, i32 4
  %234 = load ptr, ptr %233, align 8
  %235 = load ptr, ptr %19, align 8
  %236 = call zeroext i1 @equal(ptr noundef %234, ptr noundef %235)
  br i1 %236, label %238, label %237

237:                                              ; preds = %231
  store i1 false, ptr %8, align 1
  store i32 1, ptr %17, align 4
  br label %239

238:                                              ; preds = %231
  store i32 0, ptr %17, align 4
  br label %239

239:                                              ; preds = %238, %237, %230
  call void @llvm.lifetime.end.p0(i64 8, ptr %19) #8
  call void @llvm.lifetime.end.p0(i64 1, ptr %18) #8
  %240 = load i32, ptr %17, align 4
  switch i32 %240, label %292 [
    i32 0, label %241
  ]

241:                                              ; preds = %239
  br label %242

242:                                              ; preds = %241, %217
  %243 = load ptr, ptr %9, align 8
  %244 = getelementptr inbounds nuw %struct.IndexInfo, ptr %243, i32 0, i32 6
  %245 = load ptr, ptr %244, align 8
  %246 = icmp eq ptr %245, null
  %247 = zext i1 %246 to i32
  %248 = load ptr, ptr %10, align 8
  %249 = getelementptr inbounds nuw %struct.IndexInfo, ptr %248, i32 0, i32 6
  %250 = load ptr, ptr %249, align 8
  %251 = icmp eq ptr %250, null
  %252 = zext i1 %251 to i32
  %253 = icmp ne i32 %247, %252
  br i1 %253, label %254, label %255

254:                                              ; preds = %242
  store i1 false, ptr %8, align 1
  store i32 1, ptr %17, align 4
  br label %292

255:                                              ; preds = %242
  %256 = load ptr, ptr %9, align 8
  %257 = getelementptr inbounds nuw %struct.IndexInfo, ptr %256, i32 0, i32 6
  %258 = load ptr, ptr %257, align 8
  %259 = icmp ne ptr %258, null
  br i1 %259, label %260, label %280

260:                                              ; preds = %255
  call void @llvm.lifetime.start.p0(i64 1, ptr %20) #8
  call void @llvm.lifetime.start.p0(i64 8, ptr %21) #8
  %261 = load ptr, ptr %10, align 8
  %262 = getelementptr inbounds nuw %struct.IndexInfo, ptr %261, i32 0, i32 6
  %263 = load ptr, ptr %262, align 8
  %264 = load ptr, ptr %15, align 8
  %265 = call ptr @map_variable_attnos(ptr noundef %263, i32 noundef 1, i32 noundef 0, ptr noundef %264, i32 noundef 0, ptr noundef %20)
  store ptr %265, ptr %21, align 8
  %266 = load i8, ptr %20, align 1, !range !4, !noundef !5
  %267 = trunc i8 %266 to i1
  br i1 %267, label %268, label %269

268:                                              ; preds = %260
  store i1 false, ptr %8, align 1
  store i32 1, ptr %17, align 4
  br label %277

269:                                              ; preds = %260
  %270 = load ptr, ptr %9, align 8
  %271 = getelementptr inbounds nuw %struct.IndexInfo, ptr %270, i32 0, i32 6
  %272 = load ptr, ptr %271, align 8
  %273 = load ptr, ptr %21, align 8
  %274 = call zeroext i1 @equal(ptr noundef %272, ptr noundef %273)
  br i1 %274, label %276, label %275

275:                                              ; preds = %269
  store i1 false, ptr %8, align 1
  store i32 1, ptr %17, align 4
  br label %277

276:                                              ; preds = %269
  store i32 0, ptr %17, align 4
  br label %277

277:                                              ; preds = %276, %275, %268
  call void @llvm.lifetime.end.p0(i64 8, ptr %21) #8
  call void @llvm.lifetime.end.p0(i64 1, ptr %20) #8
  %278 = load i32, ptr %17, align 4
  switch i32 %278, label %292 [
    i32 0, label %279
  ]

279:                                              ; preds = %277
  br label %280

280:                                              ; preds = %279, %255
  %281 = load ptr, ptr %9, align 8
  %282 = getelementptr inbounds nuw %struct.IndexInfo, ptr %281, i32 0, i32 8
  %283 = load ptr, ptr %282, align 8
  %284 = icmp ne ptr %283, null
  br i1 %284, label %290, label %285

285:                                              ; preds = %280
  %286 = load ptr, ptr %10, align 8
  %287 = getelementptr inbounds nuw %struct.IndexInfo, ptr %286, i32 0, i32 8
  %288 = load ptr, ptr %287, align 8
  %289 = icmp ne ptr %288, null
  br i1 %289, label %290, label %291

290:                                              ; preds = %285, %280
  store i1 false, ptr %8, align 1
  store i32 1, ptr %17, align 4
  br label %292

291:                                              ; preds = %285
  store i1 true, ptr %8, align 1
  store i32 1, ptr %17, align 4
  br label %292

292:                                              ; preds = %291, %290, %277, %254, %239, %216, %199, %186, %165, %140, %73, %64, %55, %46, %33
  call void @llvm.lifetime.end.p0(i64 4, ptr %16) #8
  %293 = load i1, ptr %8, align 1
  ret i1 %293
}