; Function Attrs: nounwind uwtable
define dso_local zeroext i1 @CompareIndexInfo(ptr noundef readonly captures(none) %0, ptr noundef readonly captures(none) %1, ptr noundef readonly captures(none) %2, ptr noundef readonly captures(none) %3, ptr noundef readonly captures(none) %4, ptr noundef readonly captures(none) %5, ptr noundef %6) local_unnamed_addr #0 {
  %8 = alloca i8, align 1
  %9 = alloca i8, align 1
  %10 = getelementptr inbounds nuw i8, ptr %0, i64 160
  %11 = load i8, ptr %10, align 8, !range !4, !noundef !5
  %12 = getelementptr inbounds nuw i8, ptr %1, i64 160
  %13 = load i8, ptr %12, align 8, !range !4, !noundef !5
  %.not = icmp eq i8 %11, %13
  br i1 %.not, label %14, label %.loopexit

14:                                               ; preds = %7
  %15 = getelementptr inbounds nuw i8, ptr %0, i64 161
  %16 = load i8, ptr %15, align 1, !range !4, !noundef !5
  %17 = getelementptr inbounds nuw i8, ptr %1, i64 161
  %18 = load i8, ptr %17, align 1, !range !4, !noundef !5
  %.not64 = icmp eq i8 %16, %18
  br i1 %.not64, label %19, label %.loopexit

19:                                               ; preds = %14
  %20 = getelementptr inbounds nuw i8, ptr %0, i64 176
  %21 = load i32, ptr %20, align 8
  %22 = getelementptr inbounds nuw i8, ptr %1, i64 176
  %23 = load i32, ptr %22, align 8
  %.not65 = icmp eq i32 %21, %23
  br i1 %.not65, label %24, label %.loopexit

24:                                               ; preds = %19
  %25 = getelementptr inbounds nuw i8, ptr %0, i64 4
  %26 = load i32, ptr %25, align 4
  %27 = getelementptr inbounds nuw i8, ptr %1, i64 4
  %28 = load i32, ptr %27, align 4
  %.not66 = icmp eq i32 %26, %28
  br i1 %.not66, label %29, label %.loopexit

29:                                               ; preds = %24
  %30 = getelementptr inbounds nuw i8, ptr %0, i64 8
  %31 = load i32, ptr %30, align 8
  %32 = getelementptr inbounds nuw i8, ptr %1, i64 8
  %33 = load i32, ptr %32, align 8
  %.not67 = icmp eq i32 %31, %33
  br i1 %.not67, label %.preheader, label %.loopexit

.preheader:                                       ; preds = %29
  %34 = icmp sgt i32 %26, 0
  br i1 %34, label %.lr.ph, label %._crit_edge

.lr.ph:                                           ; preds = %.preheader
  %35 = getelementptr inbounds nuw i8, ptr %6, i64 8
  %36 = load i32, ptr %35, align 8
  %37 = getelementptr inbounds nuw i8, ptr %1, i64 12
  %38 = getelementptr inbounds nuw i8, ptr %0, i64 12
  %39 = sext i32 %31 to i64
  %wide.trip.count = zext nneg i32 %26 to i64
  br label %40

40:                                               ; preds = %.lr.ph, %72
  %indvars.iv = phi i64 [ 0, %.lr.ph ], [ %indvars.iv.next, %72 ]
  %41 = getelementptr inbounds nuw [32 x i16], ptr %37, i64 0, i64 %indvars.iv
  %42 = load i16, ptr %41, align 2
  %43 = sext i16 %42 to i32
  %44 = icmp slt i32 %36, %43
  br i1 %44, label %45, label %48

45:                                               ; preds = %40
  %46 = tail call zeroext i1 @errstart_cold(i32 noundef 21, ptr noundef null) #12
  tail call void @llvm.assume(i1 %46)
  %47 = tail call i32 (ptr, ...) @errmsg_internal(ptr noundef nonnull @.str.31) #11
  tail call void @errfinish(ptr noundef nonnull @.str.1, i32 noundef 2570, ptr noundef nonnull @__func__.CompareIndexInfo) #11
  unreachable

48:                                               ; preds = %40
  %49 = getelementptr inbounds nuw [32 x i16], ptr %38, i64 0, i64 %indvars.iv
  %50 = load i16, ptr %49, align 2
  %51 = or i16 %50, %42
  %or.cond = icmp eq i16 %51, 0
  br i1 %or.cond, label %61, label %52

52:                                               ; preds = %48
  %53 = icmp eq i16 %42, 0
  %54 = icmp eq i16 %50, 0
  %brmerge = or i1 %53, %54
  br i1 %brmerge, label %.loopexit, label %55

55:                                               ; preds = %52
  %56 = sext i16 %42 to i64
  %57 = load ptr, ptr %6, align 8
  %58 = getelementptr i16, ptr %57, i64 %56
  %59 = getelementptr i8, ptr %58, i64 -2
  %60 = load i16, ptr %59, align 2
  %.not73 = icmp eq i16 %60, %50
  br i1 %.not73, label %61, label %.loopexit

61:                                               ; preds = %48, %55
  %.not74 = icmp slt i64 %indvars.iv, %39
  br i1 %.not74, label %62, label %72

62:                                               ; preds = %61
  %63 = getelementptr inbounds nuw i32, ptr %2, i64 %indvars.iv
  %64 = load i32, ptr %63, align 4
  %65 = getelementptr inbounds nuw i32, ptr %3, i64 %indvars.iv
  %66 = load i32, ptr %65, align 4
  %.not75 = icmp eq i32 %64, %66
  br i1 %.not75, label %67, label %.loopexit

67:                                               ; preds = %62
  %68 = getelementptr inbounds nuw i32, ptr %4, i64 %indvars.iv
  %69 = load i32, ptr %68, align 4
  %70 = getelementptr inbounds nuw i32, ptr %5, i64 %indvars.iv
  %71 = load i32, ptr %70, align 4
  %.not76 = icmp eq i32 %69, %71
  br i1 %.not76, label %72, label %.loopexit

72:                                               ; preds = %67, %61
  %indvars.iv.next = add nuw nsw i64 %indvars.iv, 1
  %exitcond.not = icmp eq i64 %indvars.iv.next, %wide.trip.count
  br i1 %exitcond.not, label %._crit_edge, label %40, !llvm.loop !28

._crit_edge:                                      ; preds = %72, %.preheader
  %73 = getelementptr inbounds nuw i8, ptr %0, i64 80
  %74 = load ptr, ptr %73, align 8
  %75 = icmp ne ptr %74, null
  %76 = getelementptr inbounds nuw i8, ptr %1, i64 80
  %77 = load ptr, ptr %76, align 8
  %78 = icmp eq ptr %77, null
  %.not68 = xor i1 %75, %78
  br i1 %.not68, label %79, label %.loopexit

79:                                               ; preds = %._crit_edge
  br i1 %75, label %80, label %87

80:                                               ; preds = %79
  call void @llvm.lifetime.start.p0(i64 1, ptr nonnull %8) #11
  %81 = call ptr @map_variable_attnos(ptr noundef %77, i32 noundef 1, i32 noundef 0, ptr noundef %6, i32 noundef 0, ptr noundef nonnull %8) #11
  %82 = load i8, ptr %8, align 1, !range !4, !noundef !5
  %83 = trunc nuw i8 %82 to i1
  br i1 %83, label %.critedge, label %84

84:                                               ; preds = %80
  %85 = load ptr, ptr %73, align 8
  %86 = call zeroext i1 @equal(ptr noundef %85, ptr noundef %81) #11
  call void @llvm.lifetime.end.p0(i64 1, ptr nonnull %8) #11
  br i1 %86, label %87, label %.loopexit

87:                                               ; preds = %84, %79
  %88 = getelementptr inbounds nuw i8, ptr %0, i64 96
  %89 = load ptr, ptr %88, align 8
  %90 = icmp eq ptr %89, null
  %91 = getelementptr inbounds nuw i8, ptr %1, i64 96
  %92 = load ptr, ptr %91, align 8
  %93 = icmp ne ptr %92, null
  %.not69 = xor i1 %90, %93
  br i1 %.not69, label %94, label %.loopexit

94:                                               ; preds = %87
  br i1 %90, label %102, label %95

95:                                               ; preds = %94
  call void @llvm.lifetime.start.p0(i64 1, ptr nonnull %9) #11
  %96 = call ptr @map_variable_attnos(ptr noundef %92, i32 noundef 1, i32 noundef 0, ptr noundef %6, i32 noundef 0, ptr noundef nonnull %9) #11
  %97 = load i8, ptr %9, align 1, !range !4, !noundef !5
  %98 = trunc nuw i8 %97 to i1
  br i1 %98, label %.critedge79, label %99

99:                                               ; preds = %95
  %100 = load ptr, ptr %88, align 8
  %101 = call zeroext i1 @equal(ptr noundef %100, ptr noundef %96) #11
  call void @llvm.lifetime.end.p0(i64 1, ptr nonnull %9) #11
  br i1 %101, label %102, label %.loopexit

102:                                              ; preds = %99, %94
  %103 = getelementptr inbounds nuw i8, ptr %0, i64 112
  %104 = load ptr, ptr %103, align 8
  %.not71 = icmp eq ptr %104, null
  br i1 %.not71, label %105, label %.loopexit

105:                                              ; preds = %102
  %106 = getelementptr inbounds nuw i8, ptr %1, i64 112
  %107 = load ptr, ptr %106, align 8
  %.not72 = icmp eq ptr %107, null
  br label %.loopexit

.critedge:                                        ; preds = %80
  call void @llvm.lifetime.end.p0(i64 1, ptr nonnull %8) #11
  br label %.loopexit

.critedge79:                                      ; preds = %95
  call void @llvm.lifetime.end.p0(i64 1, ptr nonnull %9) #11
  br label %.loopexit

.loopexit:                                        ; preds = %52, %67, %62, %55, %105, %102, %.critedge79, %87, %.critedge, %._crit_edge, %29, %24, %19, %14, %7, %84, %99
  %.0 = phi i1 [ false, %99 ], [ false, %84 ], [ false, %7 ], [ false, %14 ], [ false, %19 ], [ false, %24 ], [ false, %29 ], [ false, %._crit_edge ], [ false, %.critedge ], [ false, %87 ], [ false, %.critedge79 ], [ false, %102 ], [ %.not72, %105 ], [ false, %55 ], [ false, %62 ], [ false, %67 ], [ false, %52 ]
  ret i1 %.0
}